target datalayout = "e-m:e-p270:32:32-p271:32:32-p272:64:64-i64:64-i128:128-f80:128-n8:16:32:64-S128"
target triple = "x86_64-pc-linux-gnu"

%struct.buftag = type { i32, i32, i32, i32, i32 }
%struct.LWLock = type { i16, %struct.pg_atomic_uint32, %struct.proclist_head }
%struct.pg_atomic_uint32 = type { i32 }
%struct.proclist_head = type { i32, i32 }
%struct.BufferDesc = type { %struct.buftag, i32, %struct.pg_atomic_uint32, i32, i32, %struct.LWLock }
%union.BufferDescPadded = type { %struct.BufferDesc, [12 x i8] }

@LocalBufferDescriptors = external global ptr, align 8
@BufferDescriptors = external global ptr, align 8

; Function Attrs: inlinehint nounwind uwtable
define internal i32 @pg_atomic_read_u32_impl(ptr noundef %0) #3 {
  %2 = alloca ptr, align 8
  store ptr %0, ptr %2, align 8
  %3 = load ptr, ptr %2, align 8
  %4 = getelementptr inbounds nuw %struct.pg_atomic_uint32, ptr %3, i32 0, i32 0
  %5 = load volatile i32, ptr %4, align 4
  ret i32 %5
}

; Function Attrs: inlinehint nounwind uwtable
define internal i32 @pg_atomic_read_u32(ptr noundef %0) #3 {
  %2 = alloca ptr, align 8
  store ptr %0, ptr %2, align 8
  %3 = load ptr, ptr %2, align 8
  %4 = call i32 @pg_atomic_read_u32_impl(ptr noundef %3)
  ret i32 %4
}

; Function Attrs: inlinehint nounwind uwtable
define internal ptr @GetBufferDescriptor(i32 noundef %0) #3 {
  %2 = alloca i32, align 4
  store i32 %0, ptr %2, align 4
  %3 = load ptr, ptr @BufferDescriptors, align 8
  %4 = load i32, ptr %2, align 4
  %5 = zext i32 %4 to i64
  %6 = getelementptr inbounds nuw %union.BufferDescPadded, ptr %3, i64 %5
  ret ptr %6
}

; Function Attrs: inlinehint nounwind uwtable
define internal ptr @GetLocalBufferDescriptor(i32 noundef %0) #3 {
  %2 = alloca i32, align 4
  store i32 %0, ptr %2, align 4
  %3 = load ptr, ptr @LocalBufferDescriptors, align 8
  %4 = load i32, ptr %2, align 4
  %5 = zext i32 %4 to i64
  %6 = getelementptr inbounds nuw %struct.BufferDesc, ptr %3, i64 %5
  ret ptr %6
}

; Function Attrs: nounwind uwtable
define dso_local zeroext i1 @BufferIsDirty(i32 noundef %0) #0 {
  %2 = alloca i32, align 4
  %3 = alloca ptr, align 8
  %4 = alloca i32, align 4
  store i32 %0, ptr %2, align 4
  call void @llvm.lifetime.start.p0(i64 8, ptr %3) #10
  %5 = load i32, ptr %2, align 4
  %6 = icmp slt i32 %5, 0
  br i1 %6, label %7, label %13

7:                                                ; preds = %1
  call void @llvm.lifetime.start.p0(i64 4, ptr %4) #10
  %8 = load i32, ptr %2, align 4
  %9 = sub i32 0, %8
  %10 = sub i32 %9, 1
  store i32 %10, ptr %4, align 4
  %11 = load i32, ptr %4, align 4
  %12 = call ptr @GetLocalBufferDescriptor(i32 noundef %11)
  store ptr %12, ptr %3, align 8
  call void @llvm.lifetime.end.p0(i64 4, ptr %4) #10
  br label %17

13:                                               ; preds = %1
  %14 = load i32, ptr %2, align 4
  %15 = sub i32 %14, 1
  %16 = call ptr @GetBufferDescriptor(i32 noundef %15)
  store ptr %16, ptr %3, align 8
  br label %17

17:                                               ; preds = %13, %7
  %18 = load ptr, ptr %3, align 8
  %19 = getelementptr inbounds nuw %struct.BufferDesc, ptr %18, i32 0, i32 2
  %20 = call i32 @pg_atomic_read_u32(ptr noundef %19)
  %21 = and i32 %20, 8388608
  %22 = icmp ne i32 %21, 0
  call void @llvm.lifetime.end.p0(i64 8, ptr %3) #10
  ret i1 %22
}