; Function Attrs: mustprogress nofree norecurse nounwind willreturn uwtable
define dso_local zeroext i1 @BufferIsDirty(i32 noundef %0) local_unnamed_addr #8 {
  %2 = icmp slt i32 %0, 0
  br i1 %2, label %3, label %8

3:                                                ; preds = %1
  %4 = xor i32 %0, -1
  %5 = load ptr, ptr @LocalBufferDescriptors, align 8
  %6 = zext nneg i32 %4 to i64
  %7 = getelementptr inbounds nuw %struct.BufferDesc, ptr %5, i64 %6
  br label %13

8:                                                ; preds = %1
  %9 = add nsw i32 %0, -1
  %10 = load ptr, ptr @BufferDescriptors, align 8
  %11 = zext i32 %9 to i64
  %12 = getelementptr inbounds nuw %union.BufferDescPadded, ptr %10, i64 %11
  br label %13

13:                                               ; preds = %8, %3
  %.0 = phi ptr [ %7, %3 ], [ %12, %8 ]
  %14 = getelementptr inbounds nuw i8, ptr %.0, i64 24
  %15 = load volatile i32, ptr %14, align 4
  %16 = and i32 %15, 8388608
  %17 = icmp ne i32 %16, 0
  ret i1 %17
}